target datalayout = "e-m:e-p270:32:32-p271:32:32-p272:64:64-i64:64-i128:128-f80:128-n8:16:32:64-S128"
target triple = "x86_64-pc-linux-gnu"

%"struct.boost::source_location" = type { ptr, ptr, i32, i32 }
%"class.boost::urls::authority_view" = type { ptr, %"struct.boost::urls::detail::url_impl" }
%"struct.boost::urls::detail::url_impl" = type <{ ptr, [8 x i64], [7 x i64], i64, i64, [16 x i8], i16, [2 x i8], i32, i16, i8, [5 x i8] }>
%"class.boost::core::basic_string_view" = type { ptr, i64 }
%"class.std::out_of_range" = type { %"class.std::logic_error" }
%"class.std::logic_error" = type { %"class.std::exception", %"struct.std::__cow_string" }
%"class.std::exception" = type { ptr }
%"struct.std::__cow_string" = type { %union.anon.7 }
%union.anon.7 = type { ptr }

@.str.16 = private unnamed_addr constant [26 x i8] c"basic_string_view::substr\00", align 1
@.str.17 = private unnamed_addr constant [141 x i8] c"generated/home/dtcxzyw/WorkSpace/Projects/compilers/llvm-opt-benchmark/bench/boost/boost/libs/core/include/boost/core/detail/string_view.hpp\00", align 1
@.str.18 = private unnamed_addr constant [7 x i8] c"substr\00", align 1

; Function Attrs: mustprogress nounwind uwtable
define linkonce_odr hidden void @_ZN5boost4core17basic_string_viewIcEC2EPKcm(ptr noundef nonnull align 8 dereferenceable(16) %0, ptr noundef %1, i64 noundef %2) unnamed_addr #2 comdat align 2 {
  %4 = alloca ptr, align 8
  %5 = alloca ptr, align 8
  %6 = alloca i64, align 8
  store ptr %0, ptr %4, align 8, !tbaa !7
  store ptr %1, ptr %5, align 8, !tbaa !7
  store i64 %2, ptr %6, align 8, !tbaa !24
  %7 = load ptr, ptr %4, align 8
  %8 = getelementptr inbounds nuw %"class.boost::core::basic_string_view", ptr %7, i32 0, i32 0
  %9 = load ptr, ptr %5, align 8, !tbaa !7
  store ptr %9, ptr %8, align 8, !tbaa !40
  %10 = getelementptr inbounds nuw %"class.boost::core::basic_string_view", ptr %7, i32 0, i32 1
  %11 = load i64, ptr %6, align 8, !tbaa !24
  store i64 %11, ptr %10, align 8, !tbaa !38
  ret void
}

; Function Attrs: mustprogress nounwind uwtable
define linkonce_odr hidden noundef ptr @_ZNK5boost4core17basic_string_viewIcE4dataEv(ptr noundef nonnull align 8 dereferenceable(16) %0) #2 comdat align 2 {
  %2 = alloca ptr, align 8
  store ptr %0, ptr %2, align 8, !tbaa !7
  %3 = load ptr, ptr %2, align 8
  %4 = getelementptr inbounds nuw %"class.boost::core::basic_string_view", ptr %3, i32 0, i32 0
  %5 = load ptr, ptr %4, align 8, !tbaa !40
  ret ptr %5
}

; Function Attrs: inlinehint mustprogress nounwind uwtable
define linkonce_odr noundef nonnull align 8 dereferenceable(8) ptr @_ZSt3minImERKT_S2_S2_(ptr noundef nonnull align 8 dereferenceable(8) %0, ptr noundef nonnull align 8 dereferenceable(8) %1) #1 comdat {
  %3 = alloca ptr, align 8
  %4 = alloca ptr, align 8
  %5 = alloca ptr, align 8
  store ptr %0, ptr %4, align 8, !tbaa !7
  store ptr %1, ptr %5, align 8, !tbaa !7
  %6 = load ptr, ptr %5, align 8, !tbaa !7
  %7 = load i64, ptr %6, align 8, !tbaa !24
  %8 = load ptr, ptr %4, align 8, !tbaa !7
  %9 = load i64, ptr %8, align 8, !tbaa !24
  %10 = icmp ult i64 %7, %9
  br i1 %10, label %11, label %13

11:                                               ; preds = %2
  %12 = load ptr, ptr %5, align 8, !tbaa !7
  store ptr %12, ptr %3, align 8
  br label %15

13:                                               ; preds = %2
  %14 = load ptr, ptr %4, align 8, !tbaa !7
  store ptr %14, ptr %3, align 8
  br label %15

15:                                               ; preds = %13, %11
  %16 = load ptr, ptr %3, align 8
  ret ptr %16
}

; Function Attrs: mustprogress nounwind uwtable
define linkonce_odr hidden void @_ZN5boost15source_locationC2EPKcjS2_j(ptr noundef nonnull align 8 dereferenceable(24) %0, ptr noundef %1, i32 noundef %2, ptr noundef %3, i32 noundef %4) unnamed_addr #2 comdat align 2 {
  %6 = alloca ptr, align 8
  %7 = alloca ptr, align 8
  %8 = alloca i32, align 4
  %9 = alloca ptr, align 8
  %10 = alloca i32, align 4
  store ptr %0, ptr %6, align 8, !tbaa !7
  store ptr %1, ptr %7, align 8, !tbaa !7
  store i32 %2, ptr %8, align 4, !tbaa !3
  store ptr %3, ptr %9, align 8, !tbaa !7
  store i32 %4, ptr %10, align 4, !tbaa !3
  %11 = load ptr, ptr %6, align 8
  %12 = getelementptr inbounds nuw %"struct.boost::source_location", ptr %11, i32 0, i32 0
  %13 = load ptr, ptr %7, align 8, !tbaa !7
  store ptr %13, ptr %12, align 8, !tbaa !33
  %14 = getelementptr inbounds nuw %"struct.boost::source_location", ptr %11, i32 0, i32 1
  %15 = load ptr, ptr %9, align 8, !tbaa !7
  store ptr %15, ptr %14, align 8, !tbaa !35
  %16 = getelementptr inbounds nuw %"struct.boost::source_location", ptr %11, i32 0, i32 2
  %17 = load i32, ptr %8, align 4, !tbaa !3
  store i32 %17, ptr %16, align 8, !tbaa !36
  %18 = getelementptr inbounds nuw %"struct.boost::source_location", ptr %11, i32 0, i32 3
  %19 = load i32, ptr %10, align 4, !tbaa !3
  store i32 %19, ptr %18, align 4, !tbaa !37
  ret void
}

; Function Attrs: mustprogress uwtable
define linkonce_odr hidden { ptr, i64 } @_ZNK5boost4core17basic_string_viewIcE6substrEmm(ptr noundef nonnull align 8 dereferenceable(16) %0, i64 noundef %1, i64 noundef %2) #5 comdat align 2 personality ptr @__gxx_personality_v0 {
  %4 = alloca %"class.boost::core::basic_string_view", align 8
  %5 = alloca ptr, align 8
  %6 = alloca i64, align 8
  %7 = alloca i64, align 8
  %8 = alloca %"class.std::out_of_range", align 8
  %9 = alloca %"struct.boost::source_location", align 8
  %10 = alloca ptr, align 8
  %11 = alloca i32, align 4
  %12 = alloca i64, align 8
  %13 = alloca i64, align 8
  store ptr %0, ptr %5, align 8, !tbaa !7
  store i64 %1, ptr %6, align 8, !tbaa !24
  store i64 %2, ptr %7, align 8, !tbaa !24
  %14 = load ptr, ptr %5, align 8
  %15 = load i64, ptr %6, align 8, !tbaa !24
  %16 = call noundef i64 @_ZNK5boost4core17basic_string_viewIcE4sizeEv(ptr noundef nonnull align 8 dereferenceable(16) %14) #19
  %17 = icmp ugt i64 %15, %16
  br i1 %17, label %18, label %24

18:                                               ; preds = %3
  call void @llvm.lifetime.start.p0(i64 16, ptr %8) #19
  call void @_ZNSt12out_of_rangeC1EPKc(ptr noundef nonnull align 8 dereferenceable(16) %8, ptr noundef @.str.16)
  call void @llvm.lifetime.start.p0(i64 24, ptr %9) #19
  call void @_ZN5boost15source_locationC2EPKcjS2_j(ptr noundef nonnull align 8 dereferenceable(24) %9, ptr noundef @.str.17, i32 noundef 589, ptr noundef @.str.18, i32 noundef 87) #19
  invoke void @_ZN5boost15throw_exceptionISt12out_of_rangeEEvRKT_RKNS_15source_locationE(ptr noundef nonnull align 8 dereferenceable(16) %8, ptr noundef nonnull align 8 dereferenceable(24) %9) #21
          to label %19 unwind label %20

19:                                               ; preds = %18
  unreachable

20:                                               ; preds = %18
  %21 = landingpad { ptr, i32 }
          cleanup
  %22 = extractvalue { ptr, i32 } %21, 0
  store ptr %22, ptr %10, align 8
  %23 = extractvalue { ptr, i32 } %21, 1
  store i32 %23, ptr %11, align 4
  call void @llvm.lifetime.end.p0(i64 24, ptr %9) #19
  call void @_ZNSt12out_of_rangeD1Ev(ptr noundef nonnull align 8 dereferenceable(16) %8) #19
  call void @llvm.lifetime.end.p0(i64 16, ptr %8) #19
  br label %35

24:                                               ; preds = %3
  call void @llvm.lifetime.start.p0(i64 8, ptr %12) #19
  call void @llvm.lifetime.start.p0(i64 8, ptr %13) #19
  %25 = call noundef i64 @_ZNK5boost4core17basic_string_viewIcE4sizeEv(ptr noundef nonnull align 8 dereferenceable(16) %14) #19
  %26 = load i64, ptr %6, align 8, !tbaa !24
  %27 = sub i64 %25, %26
  store i64 %27, ptr %13, align 8, !tbaa !24
  %28 = call noundef nonnull align 8 dereferenceable(8) ptr @_ZSt3minImERKT_S2_S2_(ptr noundef nonnull align 8 dereferenceable(8) %7, ptr noundef nonnull align 8 dereferenceable(8) %13)
  %29 = load i64, ptr %28, align 8, !tbaa !24
  call void @llvm.lifetime.end.p0(i64 8, ptr %13) #19
  store i64 %29, ptr %12, align 8, !tbaa !24
  %30 = call noundef ptr @_ZNK5boost4core17basic_string_viewIcE4dataEv(ptr noundef nonnull align 8 dereferenceable(16) %14) #19
  %31 = load i64, ptr %6, align 8, !tbaa !24
  %32 = getelementptr inbounds nuw i8, ptr %30, i64 %31
  %33 = load i64, ptr %12, align 8, !tbaa !24
  call void @_ZN5boost4core17basic_string_viewIcEC2EPKcm(ptr noundef nonnull align 8 dereferenceable(16) %4, ptr noundef %32, i64 noundef %33) #19
  call void @llvm.lifetime.end.p0(i64 8, ptr %12) #19
  %34 = load { ptr, i64 }, ptr %4, align 8
  ret { ptr, i64 } %34

35:                                               ; preds = %20
  %36 = load ptr, ptr %10, align 8
  %37 = load i32, ptr %11, align 4
  %38 = insertvalue { ptr, i32 } poison, ptr %36, 0
  %39 = insertvalue { ptr, i32 } %38, i32 %37, 1
  resume { ptr, i32 } %39
}

; Function Attrs: mustprogress nounwind uwtable
define linkonce_odr hidden noundef i64 @_ZNK5boost4core17basic_string_viewIcE4sizeEv(ptr noundef nonnull align 8 dereferenceable(16) %0) #2 comdat align 2 {
  %2 = alloca ptr, align 8
  store ptr %0, ptr %2, align 8, !tbaa !7
  %3 = load ptr, ptr %2, align 8
  %4 = getelementptr inbounds nuw %"class.boost::core::basic_string_view", ptr %3, i32 0, i32 1
  %5 = load i64, ptr %4, align 8, !tbaa !38
  ret i64 %5
}

; Function Attrs: mustprogress nounwind uwtable
define linkonce_odr hidden void @_ZN5boost4core17basic_string_viewIcEC2Ev(ptr noundef nonnull align 8 dereferenceable(16) %0) unnamed_addr #2 comdat align 2 {
  %2 = alloca ptr, align 8
  store ptr %0, ptr %2, align 8, !tbaa !7
  %3 = load ptr, ptr %2, align 8
  %4 = getelementptr inbounds nuw %"class.boost::core::basic_string_view", ptr %3, i32 0, i32 0
  store ptr null, ptr %4, align 8, !tbaa !40
  %5 = getelementptr inbounds nuw %"class.boost::core::basic_string_view", ptr %3, i32 0, i32 1
  store i64 0, ptr %5, align 8, !tbaa !38
  ret void
}

; Function Attrs: mustprogress nounwind uwtable
define { ptr, i64 } @_ZNK5boost4urls14authority_view14host_ipvfutureEv(ptr noundef nonnull align 8 dereferenceable(184) %0) #2 align 2 personality ptr @__gxx_personality_v0 {
  %2 = alloca %"class.boost::core::basic_string_view", align 8
  %3 = alloca ptr, align 8
  %4 = alloca %"class.boost::core::basic_string_view", align 8
  store ptr %0, ptr %3, align 8, !tbaa !7
  %5 = load ptr, ptr %3, align 8
  %6 = getelementptr inbounds nuw %"class.boost::urls::authority_view", ptr %5, i32 0, i32 1
  %7 = getelementptr inbounds nuw %"struct.boost::urls::detail::url_impl", ptr %6, i32 0, i32 8
  %8 = load i32, ptr %7, align 4, !tbaa !41
  %9 = icmp ne i32 %8, 4
  br i1 %9, label %10, label %11

10:                                               ; preds = %1
  call void @_ZN5boost4core17basic_string_viewIcEC2Ev(ptr noundef nonnull align 8 dereferenceable(16) %2) #19
  br label %26

11:                                               ; preds = %1
  %12 = getelementptr inbounds nuw %"class.boost::urls::authority_view", ptr %5, i32 0, i32 1
  %13 = call { ptr, i64 } @_ZNK5boost4urls6detail8url_impl3getEi(ptr noundef nonnull align 8 dereferenceable(171) %12, i32 noundef 2) #19
  %14 = getelementptr inbounds nuw { ptr, i64 }, ptr %2, i32 0, i32 0
  %15 = extractvalue { ptr, i64 } %13, 0
  store ptr %15, ptr %14, align 8
  %16 = getelementptr inbounds nuw { ptr, i64 }, ptr %2, i32 0, i32 1
  %17 = extractvalue { ptr, i64 } %13, 1
  store i64 %17, ptr %16, align 8
  call void @llvm.lifetime.start.p0(i64 16, ptr %4) #19
  %18 = call noundef i64 @_ZNK5boost4core17basic_string_viewIcE4sizeEv(ptr noundef nonnull align 8 dereferenceable(16) %2) #19
  %19 = sub i64 %18, 2
  %20 = invoke { ptr, i64 } @_ZNK5boost4core17basic_string_viewIcE6substrEmm(ptr noundef nonnull align 8 dereferenceable(16) %2, i64 noundef 1, i64 noundef %19)
          to label %21 unwind label %28

21:                                               ; preds = %11
  %22 = getelementptr inbounds nuw { ptr, i64 }, ptr %4, i32 0, i32 0
  %23 = extractvalue { ptr, i64 } %20, 0
  store ptr %23, ptr %22, align 8
  %24 = getelementptr inbounds nuw { ptr, i64 }, ptr %4, i32 0, i32 1
  %25 = extractvalue { ptr, i64 } %20, 1
  store i64 %25, ptr %24, align 8
  call void @llvm.memcpy.p0.p0.i64(ptr align 8 %2, ptr align 8 %4, i64 16, i1 false), !tbaa.struct !32
  call void @llvm.lifetime.end.p0(i64 16, ptr %4) #19
  br label %26

26:                                               ; preds = %21, %10
  %27 = load { ptr, i64 }, ptr %2, align 8
  ret { ptr, i64 } %27

28:                                               ; preds = %11
  %29 = landingpad { ptr, i32 }
          catch ptr null
  %30 = extractvalue { ptr, i32 } %29, 0
  call void @__clang_call_terminate(ptr %30) #20
  unreachable
}