; Function Attrs: mustprogress nounwind uwtable
define { ptr, i64 } @_ZNK5boost4urls14authority_view14host_ipvfutureEv(ptr noundef nonnull align 8 dereferenceable(184) %0) local_unnamed_addr #3 align 2 personality ptr @__gxx_personality_v0 {
  %2 = alloca %"class.std::out_of_range", align 8
  %3 = alloca %"struct.boost::source_location", align 8
  %4 = getelementptr inbounds nuw i8, ptr %0, i64 172
  %5 = load i32, ptr %4, align 4, !tbaa !72
  %.not = icmp eq i32 %5, 4
  br i1 %.not, label %6, label %23

6:                                                ; preds = %1
  %7 = getelementptr inbounds nuw i8, ptr %0, i64 8
  %8 = tail call { ptr, i64 } @_ZNK5boost4urls6detail8url_impl3getEi(ptr noundef nonnull align 8 dereferenceable(171) %7, i32 noundef 2) #28
  %9 = extractvalue { ptr, i64 } %8, 1
  %10 = icmp eq i64 %9, 0
  br i1 %10, label %11, label %18

11:                                               ; preds = %6
  call void @llvm.lifetime.start.p0(i64 16, ptr nonnull %2) #28
  invoke void @_ZNSt12out_of_rangeC1EPKc(ptr noundef nonnull align 8 dereferenceable(16) %2, ptr noundef nonnull @.str.16)
          to label %.noexc unwind label %24

.noexc:                                           ; preds = %11
  call void @llvm.lifetime.start.p0(i64 24, ptr nonnull %3) #28
  store ptr @.str.17, ptr %3, align 8, !tbaa !43
  %12 = getelementptr inbounds nuw i8, ptr %3, i64 8
  store ptr @.str.18, ptr %12, align 8, !tbaa !45
  %13 = getelementptr inbounds nuw i8, ptr %3, i64 16
  store i32 589, ptr %13, align 8, !tbaa !46
  %14 = getelementptr inbounds nuw i8, ptr %3, i64 20
  store i32 87, ptr %14, align 4, !tbaa !47
  invoke void @_ZN5boost15throw_exceptionISt12out_of_rangeEEvRKT_RKNS_15source_locationE(ptr noundef nonnull align 8 dereferenceable(16) %2, ptr noundef nonnull align 8 dereferenceable(24) %3) #31
          to label %15 unwind label %16

15:                                               ; preds = %.noexc
  unreachable

16:                                               ; preds = %.noexc
  %17 = landingpad { ptr, i32 }
          catch ptr null
  call void @llvm.lifetime.end.p0(i64 24, ptr nonnull %3) #28
  call void @_ZNSt12out_of_rangeD1Ev(ptr noundef nonnull align 8 dereferenceable(16) %2) #28
  call void @llvm.lifetime.end.p0(i64 16, ptr nonnull %2) #28
  br label %.body

18:                                               ; preds = %6
  %19 = add i64 %9, -2
  %20 = extractvalue { ptr, i64 } %8, 0
  %21 = add i64 %9, -1
  %.sroa.speculated.i = tail call i64 @llvm.umin.i64(i64 %21, i64 %19)
  %22 = getelementptr inbounds nuw i8, ptr %20, i64 1
  br label %23

23:                                               ; preds = %1, %18
  %.sroa.0.0 = phi ptr [ %22, %18 ], [ null, %1 ]
  %.sroa.5.0 = phi i64 [ %.sroa.speculated.i, %18 ], [ 0, %1 ]
  %.fca.0.insert = insertvalue { ptr, i64 } poison, ptr %.sroa.0.0, 0
  %.fca.1.insert = insertvalue { ptr, i64 } %.fca.0.insert, i64 %.sroa.5.0, 1
  ret { ptr, i64 } %.fca.1.insert

24:                                               ; preds = %11
  %25 = landingpad { ptr, i32 }
          catch ptr null
  br label %.body

.body:                                            ; preds = %16, %24
  %eh.lpad-body = phi { ptr, i32 } [ %25, %24 ], [ %17, %16 ]
  %26 = extractvalue { ptr, i32 } %eh.lpad-body, 0
  call void @__clang_call_terminate(ptr %26) #29
  unreachable
}